target datalayout = "e-m:e-p270:32:32-p271:32:32-p272:64:64-i64:64-i128:128-f80:128-n8:16:32:64-S128"
target triple = "x86_64-pc-linux-gnu"

%struct._object = type { %union.anon, ptr }
%union.anon = type { i64 }
%struct.PyDateTime_CAPI = type { ptr, ptr, ptr, ptr, ptr, ptr, ptr, ptr, ptr, ptr, ptr, ptr, ptr, ptr, ptr }

@_Py_NoneStruct = external global %struct._object, align 8
@PyDateTimeAPI = internal global ptr null, align 8
@.str.27 = private unnamed_addr constant [10 x i8] c"piiiiiiii\00", align 1

; Function Attrs: nounwind uwtable
define internal ptr @get_datetime_fromdateandtimeandfold(ptr noundef %0, ptr noundef %1) #0 {
  %3 = alloca ptr, align 8
  %4 = alloca ptr, align 8
  %5 = alloca ptr, align 8
  %6 = alloca ptr, align 8
  %7 = alloca i32, align 4
  %8 = alloca i32, align 4
  %9 = alloca i32, align 4
  %10 = alloca i32, align 4
  %11 = alloca i32, align 4
  %12 = alloca i32, align 4
  %13 = alloca i32, align 4
  %14 = alloca i32, align 4
  %15 = alloca i32, align 4
  %16 = alloca i32, align 4
  store ptr %0, ptr %4, align 8, !tbaa !3
  store ptr %1, ptr %5, align 8, !tbaa !3
  call void @llvm.lifetime.start.p0(i64 8, ptr %6) #6
  store ptr null, ptr %6, align 8, !tbaa !3
  call void @llvm.lifetime.start.p0(i64 4, ptr %7) #6
  call void @llvm.lifetime.start.p0(i64 4, ptr %8) #6
  call void @llvm.lifetime.start.p0(i64 4, ptr %9) #6
  call void @llvm.lifetime.start.p0(i64 4, ptr %10) #6
  call void @llvm.lifetime.start.p0(i64 4, ptr %11) #6
  call void @llvm.lifetime.start.p0(i64 4, ptr %12) #6
  call void @llvm.lifetime.start.p0(i64 4, ptr %13) #6
  call void @llvm.lifetime.start.p0(i64 4, ptr %14) #6
  call void @llvm.lifetime.start.p0(i64 4, ptr %15) #6
  %17 = load ptr, ptr %5, align 8, !tbaa !3
  %18 = call i32 (ptr, ptr, ...) @PyArg_ParseTuple(ptr noundef %17, ptr noundef @.str.27, ptr noundef %7, ptr noundef %8, ptr noundef %9, ptr noundef %10, ptr noundef %11, ptr noundef %12, ptr noundef %13, ptr noundef %14, ptr noundef %15)
  %19 = icmp ne i32 %18, 0
  br i1 %19, label %21, label %20

20:                                               ; preds = %2
  store ptr null, ptr %3, align 8
  store i32 1, ptr %16, align 4
  br label %58

21:                                               ; preds = %2
  %22 = load i32, ptr %7, align 4, !tbaa !9
  %23 = icmp ne i32 %22, 0
  br i1 %23, label %24, label %40

24:                                               ; preds = %21
  %25 = load ptr, ptr @PyDateTimeAPI, align 8, !tbaa !24
  %26 = getelementptr inbounds nuw %struct.PyDateTime_CAPI, ptr %25, i32 0, i32 13
  %27 = load ptr, ptr %26, align 8, !tbaa !34
  %28 = load i32, ptr %8, align 4, !tbaa !9
  %29 = load i32, ptr %9, align 4, !tbaa !9
  %30 = load i32, ptr %10, align 4, !tbaa !9
  %31 = load i32, ptr %11, align 4, !tbaa !9
  %32 = load i32, ptr %12, align 4, !tbaa !9
  %33 = load i32, ptr %13, align 4, !tbaa !9
  %34 = load i32, ptr %14, align 4, !tbaa !9
  %35 = load i32, ptr %15, align 4, !tbaa !9
  %36 = load ptr, ptr @PyDateTimeAPI, align 8, !tbaa !24
  %37 = getelementptr inbounds nuw %struct.PyDateTime_CAPI, ptr %36, i32 0, i32 1
  %38 = load ptr, ptr %37, align 8, !tbaa !27
  %39 = call ptr %27(i32 noundef %28, i32 noundef %29, i32 noundef %30, i32 noundef %31, i32 noundef %32, i32 noundef %33, i32 noundef %34, ptr noundef @_Py_NoneStruct, i32 noundef %35, ptr noundef %38)
  store ptr %39, ptr %6, align 8, !tbaa !3
  br label %56

40:                                               ; preds = %21
  %41 = load ptr, ptr @PyDateTimeAPI, align 8, !tbaa !24
  %42 = getelementptr inbounds nuw %struct.PyDateTime_CAPI, ptr %41, i32 0, i32 13
  %43 = load ptr, ptr %42, align 8, !tbaa !34
  %44 = load i32, ptr %8, align 4, !tbaa !9
  %45 = load i32, ptr %9, align 4, !tbaa !9
  %46 = load i32, ptr %10, align 4, !tbaa !9
  %47 = load i32, ptr %11, align 4, !tbaa !9
  %48 = load i32, ptr %12, align 4, !tbaa !9
  %49 = load i32, ptr %13, align 4, !tbaa !9
  %50 = load i32, ptr %14, align 4, !tbaa !9
  %51 = load i32, ptr %15, align 4, !tbaa !9
  %52 = load ptr, ptr @PyDateTimeAPI, align 8, !tbaa !24
  %53 = getelementptr inbounds nuw %struct.PyDateTime_CAPI, ptr %52, i32 0, i32 1
  %54 = load ptr, ptr %53, align 8, !tbaa !27
  %55 = call ptr %43(i32 noundef %44, i32 noundef %45, i32 noundef %46, i32 noundef %47, i32 noundef %48, i32 noundef %49, i32 noundef %50, ptr noundef @_Py_NoneStruct, i32 noundef %51, ptr noundef %54)
  store ptr %55, ptr %6, align 8, !tbaa !3
  br label %56

56:                                               ; preds = %40, %24
  %57 = load ptr, ptr %6, align 8, !tbaa !3
  store ptr %57, ptr %3, align 8
  store i32 1, ptr %16, align 4
  br label %58

58:                                               ; preds = %56, %20
  call void @llvm.lifetime.end.p0(i64 4, ptr %15) #6
  call void @llvm.lifetime.end.p0(i64 4, ptr %14) #6
  call void @llvm.lifetime.end.p0(i64 4, ptr %13) #6
  call void @llvm.lifetime.end.p0(i64 4, ptr %12) #6
  call void @llvm.lifetime.end.p0(i64 4, ptr %11) #6
  call void @llvm.lifetime.end.p0(i64 4, ptr %10) #6
  call void @llvm.lifetime.end.p0(i64 4, ptr %9) #6
  call void @llvm.lifetime.end.p0(i64 4, ptr %8) #6
  call void @llvm.lifetime.end.p0(i64 4, ptr %7) #6
  call void @llvm.lifetime.end.p0(i64 8, ptr %6) #6
  %59 = load ptr, ptr %3, align 8
  ret ptr %59
}